target datalayout = "e-m:e-p270:32:32-p271:32:32-p272:64:64-i64:64-i128:128-f80:128-n8:16:32:64-S128"
target triple = "x86_64-pc-linux-gnu"

%struct.FLAC__OggDecoderAspect = type { i32, i64, %struct.ogg_stream_state, %struct.ogg_sync_state, i32, i32, i32, i32, i32, i32, i32, i32, i32, %struct.ogg_page, i32, %struct.ogg_packet, ptr, %struct.FLAC__OggDecoderAspect_TargetLink, i32, i32, i32, i32, i32, i32 }
%struct.ogg_stream_state = type { ptr, i64, i64, i64, ptr, ptr, i64, i64, i64, i64, [282 x i8], i32, i32, i32, i64, i64, i64, i64 }
%struct.ogg_sync_state = type { ptr, i32, i32, i32, i32, i32, i32 }
%struct.ogg_page = type { ptr, i64, ptr, i64 }
%struct.ogg_packet = type { ptr, i64, i64, i64, i64, i64 }
%struct.FLAC__OggDecoderAspect_TargetLink = type { i64, i64, i64, i64, i64, i32 }

; Function Attrs: nounwind sspstrong uwtable
define hidden void @FLAC__ogg_decoder_aspect_flush(ptr noundef %0) #0 {
  %2 = alloca ptr, align 8
  store ptr %0, ptr %2, align 8, !tbaa !3
  %3 = load ptr, ptr %2, align 8, !tbaa !3
  %4 = getelementptr inbounds nuw %struct.FLAC__OggDecoderAspect, ptr %3, i32 0, i32 2
  %5 = call i32 @ogg_stream_reset(ptr noundef %4)
  %6 = load ptr, ptr %2, align 8, !tbaa !3
  %7 = getelementptr inbounds nuw %struct.FLAC__OggDecoderAspect, ptr %6, i32 0, i32 3
  %8 = call i32 @ogg_sync_reset(ptr noundef %7)
  %9 = load ptr, ptr %2, align 8, !tbaa !3
  %10 = getelementptr inbounds nuw %struct.FLAC__OggDecoderAspect, ptr %9, i32 0, i32 9
  store i32 0, ptr %10, align 4, !tbaa !26
  %11 = load ptr, ptr %2, align 8, !tbaa !3
  %12 = getelementptr inbounds nuw %struct.FLAC__OggDecoderAspect, ptr %11, i32 0, i32 12
  store i32 0, ptr %12, align 8, !tbaa !27
  %13 = load ptr, ptr %2, align 8, !tbaa !3
  %14 = getelementptr inbounds nuw %struct.FLAC__OggDecoderAspect, ptr %13, i32 0, i32 10
  store i32 0, ptr %14, align 8, !tbaa !28
  ret void
}

; Function Attrs: nounwind sspstrong uwtable
define hidden void @FLAC__ogg_decoder_aspect_reset(ptr noundef %0) #0 {
  %2 = alloca ptr, align 8
  store ptr %0, ptr %2, align 8, !tbaa !3
  %3 = load ptr, ptr %2, align 8, !tbaa !3
  call void @FLAC__ogg_decoder_aspect_flush(ptr noundef %3)
  %4 = load ptr, ptr %2, align 8, !tbaa !3
  %5 = getelementptr inbounds nuw %struct.FLAC__OggDecoderAspect, ptr %4, i32 0, i32 21
  store i32 0, ptr %5, align 4, !tbaa !29
  %6 = load ptr, ptr %2, align 8, !tbaa !3
  %7 = getelementptr inbounds nuw %struct.FLAC__OggDecoderAspect, ptr %6, i32 0, i32 22
  store i32 0, ptr %7, align 8, !tbaa !30
  %8 = load ptr, ptr %2, align 8, !tbaa !3
  %9 = getelementptr inbounds nuw %struct.FLAC__OggDecoderAspect, ptr %8, i32 0, i32 0
  %10 = load i32, ptr %9, align 8, !tbaa !23
  %11 = icmp ne i32 %10, 0
  br i1 %11, label %17, label %12

12:                                               ; preds = %1
  %13 = load ptr, ptr %2, align 8, !tbaa !3
  %14 = getelementptr inbounds nuw %struct.FLAC__OggDecoderAspect, ptr %13, i32 0, i32 11
  %15 = load i32, ptr %14, align 4, !tbaa !24
  %16 = icmp ne i32 %15, 0
  br i1 %16, label %17, label %20

17:                                               ; preds = %12, %1
  %18 = load ptr, ptr %2, align 8, !tbaa !3
  %19 = getelementptr inbounds nuw %struct.FLAC__OggDecoderAspect, ptr %18, i32 0, i32 6
  store i32 1, ptr %19, align 8, !tbaa !25
  br label %20

20:                                               ; preds = %17, %12
  %21 = load ptr, ptr %2, align 8, !tbaa !3
  %22 = getelementptr inbounds nuw %struct.FLAC__OggDecoderAspect, ptr %21, i32 0, i32 7
  store i32 1, ptr %22, align 4, !tbaa !42
  %23 = load ptr, ptr %2, align 8, !tbaa !3
  %24 = getelementptr inbounds nuw %struct.FLAC__OggDecoderAspect, ptr %23, i32 0, i32 8
  store i32 0, ptr %24, align 8, !tbaa !43
  ret void
}