; Function Attrs: nounwind sspstrong uwtable
define hidden void @FLAC__ogg_decoder_aspect_reset(ptr noundef %0) local_unnamed_addr #2 {
  %2 = getelementptr inbounds nuw i8, ptr %0, i64 16
  %3 = tail call i32 @ogg_stream_reset(ptr noundef nonnull %2) #15
  %4 = getelementptr inbounds nuw i8, ptr %0, i64 424
  %5 = tail call i32 @ogg_sync_reset(ptr noundef nonnull %4) #15
  %6 = getelementptr inbounds nuw i8, ptr %0, i64 476
  store i32 0, ptr %6, align 4, !tbaa !24
  %7 = getelementptr inbounds nuw i8, ptr %0, i64 488
  store i32 0, ptr %7, align 8, !tbaa !25
  %8 = getelementptr inbounds nuw i8, ptr %0, i64 480
  store i32 0, ptr %8, align 8, !tbaa !26
  %9 = getelementptr inbounds nuw i8, ptr %0, i64 652
  store i32 0, ptr %9, align 4, !tbaa !33
  %10 = getelementptr inbounds nuw i8, ptr %0, i64 656
  store i32 0, ptr %10, align 8, !tbaa !34
  %11 = load i32, ptr %0, align 8, !tbaa !21
  %.not = icmp eq i32 %11, 0
  br i1 %.not, label %12, label %15

12:                                               ; preds = %1
  %13 = getelementptr inbounds nuw i8, ptr %0, i64 484
  %14 = load i32, ptr %13, align 4, !tbaa !22
  %.not8 = icmp eq i32 %14, 0
  br i1 %.not8, label %17, label %15

15:                                               ; preds = %12, %1
  %16 = getelementptr inbounds nuw i8, ptr %0, i64 464
  store i32 1, ptr %16, align 8, !tbaa !23
  br label %17

17:                                               ; preds = %15, %12
  %18 = getelementptr inbounds nuw i8, ptr %0, i64 468
  store i32 1, ptr %18, align 4, !tbaa !35
  %19 = getelementptr inbounds nuw i8, ptr %0, i64 472
  store i32 0, ptr %19, align 8, !tbaa !36
  ret void
}